; Function Attrs: mustprogress uwtable
define noundef zeroext i1 @_ZN5draco37SequentialAttributeEncodersController36EncodeDataNeededByPortableTransformsEPNS_13EncoderBufferE(ptr noundef nonnull readonly align 8 captures(none) dereferenceable(168) %0, ptr noundef %1) unnamed_addr #3 align 2 {
  %3 = getelementptr inbounds nuw i8, ptr %0, i64 72
  %4 = getelementptr inbounds nuw i8, ptr %0, i64 80
  %5 = load ptr, ptr %4, align 8, !tbaa !27
  %6 = load ptr, ptr %3, align 8, !tbaa !22
  %7 = icmp eq ptr %5, %6
  br i1 %7, label %._crit_edge, label %.lr.ph

8:                                                ; preds = %.lr.ph
  %9 = add i32 %.069, 1
  %10 = zext i32 %9 to i64
  %11 = load ptr, ptr %4, align 8, !tbaa !27
  %12 = load ptr, ptr %3, align 8, !tbaa !22
  %13 = ptrtoint ptr %11 to i64
  %14 = ptrtoint ptr %12 to i64
  %15 = sub i64 %13, %14
  %16 = ashr exact i64 %15, 3
  %.not = icmp ugt i64 %16, %10
  br i1 %.not, label %.lr.ph, label %._crit_edge, !llvm.loop !52

.lr.ph:                                           ; preds = %2, %8
  %17 = phi ptr [ %12, %8 ], [ %6, %2 ]
  %18 = phi i64 [ %10, %8 ], [ 0, %2 ]
  %.069 = phi i32 [ %9, %8 ], [ 0, %2 ]
  %19 = getelementptr inbounds nuw %"class.std::unique_ptr.16", ptr %17, i64 %18
  %20 = load ptr, ptr %19, align 8, !tbaa !25
  %21 = load ptr, ptr %20, align 8, !tbaa !3
  %22 = getelementptr inbounds nuw i8, ptr %21, i64 48
  %23 = load ptr, ptr %22, align 8
  %24 = tail call noundef zeroext i1 %23(ptr noundef nonnull align 8 dereferenceable(72) %20, ptr noundef %1)
  br i1 %24, label %8, label %._crit_edge

._crit_edge:                                      ; preds = %8, %.lr.ph, %2
  %.lcssa = phi i1 [ true, %2 ], [ %24, %.lr.ph ], [ %24, %8 ]
  ret i1 %.lcssa
}